; ModuleID = '9/1191.c'
source_filename = "9/1191.c"
target datalayout = "e-m:e-p270:32:32-p271:32:32-p272:64:64-i64:64-f80:128-n8:16:32:64-S128"
target triple = "x86_64-pc-linux-gnu"

@.str = private unnamed_addr constant [3 x i8] c"%d\00", align 1
@.str.1 = private unnamed_addr constant [3 x i8] c"%s\00", align 1
@.str.2 = private unnamed_addr constant [4 x i8] c"%s\0A\00", align 1

; Function Attrs: noinline nounwind uwtable
define dso_local i32 @main() #0 {
  %1 = alloca i32, align 4
  %2 = alloca i32, align 4
  %3 = alloca i32, align 4
  %4 = alloca i32, align 4
  %5 = alloca i32, align 4
  %6 = alloca i32, align 4
  %7 = alloca i32, align 4
  %8 = alloca [100 x i32], align 16
  %9 = alloca [100 x i32], align 16
  %10 = alloca [100 x i32], align 16
  %11 = alloca [100 x [11 x i8]], align 16
  %12 = alloca [11 x i8], align 1
  %13 = alloca [100 x [11 x i8]], align 16
  %14 = alloca [100 x [11 x i8]], align 16
  store i32 0, i32* %1, align 4
  store i32 0, i32* %4, align 4
  store i32 0, i32* %6, align 4
  %15 = call i32 (i8*, ...) @__isoc99_scanf(i8* getelementptr inbounds ([3 x i8], [3 x i8]* @.str, i64 0, i64 0), i32* %2)
  store i32 0, i32* %3, align 4
  br label %16

16:                                               ; preds = %30, %0
  %17 = load i32, i32* %3, align 4
  %18 = load i32, i32* %2, align 4
  %19 = icmp slt i32 %17, %18
  br i1 %19, label %20, label %33

20:                                               ; preds = %16
  %21 = load i32, i32* %3, align 4
  %22 = sext i32 %21 to i64
  %23 = getelementptr inbounds [100 x [11 x i8]], [100 x [11 x i8]]* %11, i64 0, i64 %22
  %24 = getelementptr inbounds [11 x i8], [11 x i8]* %23, i64 0, i64 0
  %25 = call i32 (i8*, ...) @__isoc99_scanf(i8* getelementptr inbounds ([3 x i8], [3 x i8]* @.str.1, i64 0, i64 0), i8* %24)
  %26 = load i32, i32* %3, align 4
  %27 = sext i32 %26 to i64
  %28 = getelementptr inbounds [100 x i32], [100 x i32]* %8, i64 0, i64 %27
  %29 = call i32 (i8*, ...) @__isoc99_scanf(i8* getelementptr inbounds ([3 x i8], [3 x i8]* @.str, i64 0, i64 0), i32* %28)
  br label %30

30:                                               ; preds = %20
  %31 = load i32, i32* %3, align 4
  %32 = add nsw i32 %31, 1
  store i32 %32, i32* %3, align 4
  br label %16

33:                                               ; preds = %16
  store i32 0, i32* %3, align 4
  br label %34

34:                                               ; preds = %83, %33
  %35 = load i32, i32* %3, align 4
  %36 = load i32, i32* %2, align 4
  %37 = icmp slt i32 %35, %36
  br i1 %37, label %38, label %86

38:                                               ; preds = %34
  %39 = load i32, i32* %3, align 4
  %40 = sext i32 %39 to i64
  %41 = getelementptr inbounds [100 x i32], [100 x i32]* %8, i64 0, i64 %40
  %42 = load i32, i32* %41, align 4
  %43 = icmp sge i32 %42, 60
  br i1 %43, label %44, label %63

44:                                               ; preds = %38
  %45 = load i32, i32* %4, align 4
  %46 = sext i32 %45 to i64
  %47 = getelementptr inbounds [100 x [11 x i8]], [100 x [11 x i8]]* %13, i64 0, i64 %46
  %48 = getelementptr inbounds [11 x i8], [11 x i8]* %47, i64 0, i64 0
  %49 = load i32, i32* %3, align 4
  %50 = sext i32 %49 to i64
  %51 = getelementptr inbounds [100 x [11 x i8]], [100 x [11 x i8]]* %11, i64 0, i64 %50
  %52 = getelementptr inbounds [11 x i8], [11 x i8]* %51, i64 0, i64 0
  %53 = call i8* @strcpy(i8* %48, i8* %52) #3
  %54 = load i32, i32* %3, align 4
  %55 = sext i32 %54 to i64
  %56 = getelementptr inbounds [100 x i32], [100 x i32]* %8, i64 0, i64 %55
  %57 = load i32, i32* %56, align 4
  %58 = load i32, i32* %4, align 4
  %59 = sext i32 %58 to i64
  %60 = getelementptr inbounds [100 x i32], [100 x i32]* %9, i64 0, i64 %59
  store i32 %57, i32* %60, align 4
  %61 = load i32, i32* %4, align 4
  %62 = add nsw i32 %61, 1
  store i32 %62, i32* %4, align 4
  br label %82

63:                                               ; preds = %38
  %64 = load i32, i32* %6, align 4
  %65 = sext i32 %64 to i64
  %66 = getelementptr inbounds [100 x [11 x i8]], [100 x [11 x i8]]* %14, i64 0, i64 %65
  %67 = getelementptr inbounds [11 x i8], [11 x i8]* %66, i64 0, i64 0
  %68 = load i32, i32* %3, align 4
  %69 = sext i32 %68 to i64
  %70 = getelementptr inbounds [100 x [11 x i8]], [100 x [11 x i8]]* %11, i64 0, i64 %69
  %71 = getelementptr inbounds [11 x i8], [11 x i8]* %70, i64 0, i64 0
  %72 = call i8* @strcpy(i8* %67, i8* %71) #3
  %73 = load i32, i32* %3, align 4
  %74 = sext i32 %73 to i64
  %75 = getelementptr inbounds [100 x i32], [100 x i32]* %8, i64 0, i64 %74
  %76 = load i32, i32* %75, align 4
  %77 = load i32, i32* %6, align 4
  %78 = sext i32 %77 to i64
  %79 = getelementptr inbounds [100 x i32], [100 x i32]* %10, i64 0, i64 %78
  store i32 %76, i32* %79, align 4
  %80 = load i32, i32* %6, align 4
  %81 = add nsw i32 %80, 1
  store i32 %81, i32* %6, align 4
  br label %82

82:                                               ; preds = %63, %44
  br label %83

83:                                               ; preds = %82
  %84 = load i32, i32* %3, align 4
  %85 = add nsw i32 %84, 1
  store i32 %85, i32* %3, align 4
  br label %34

86:                                               ; preds = %34
  store i32 1, i32* %7, align 4
  br label %87

87:                                               ; preds = %155, %86
  %88 = load i32, i32* %7, align 4
  %89 = load i32, i32* %4, align 4
  %90 = icmp slt i32 %88, %89
  br i1 %90, label %91, label %158

91:                                               ; preds = %87
  store i32 0, i32* %3, align 4
  br label %92

92:                                               ; preds = %151, %91
  %93 = load i32, i32* %3, align 4
  %94 = load i32, i32* %4, align 4
  %95 = load i32, i32* %7, align 4
  %96 = sub nsw i32 %94, %95
  %97 = icmp slt i32 %93, %96
  br i1 %97, label %98, label %154

98:                                               ; preds = %92
  %99 = load i32, i32* %3, align 4
  %100 = sext i32 %99 to i64
  %101 = getelementptr inbounds [100 x i32], [100 x i32]* %9, i64 0, i64 %100
  %102 = load i32, i32* %101, align 4
  %103 = load i32, i32* %3, align 4
  %104 = add nsw i32 %103, 1
  %105 = sext i32 %104 to i64
  %106 = getelementptr inbounds [100 x i32], [100 x i32]* %9, i64 0, i64 %105
  %107 = load i32, i32* %106, align 4
  %108 = icmp slt i32 %102, %107
  br i1 %108, label %109, label %150

109:                                              ; preds = %98
  %110 = load i32, i32* %3, align 4
  %111 = add nsw i32 %110, 1
  %112 = sext i32 %111 to i64
  %113 = getelementptr inbounds [100 x i32], [100 x i32]* %9, i64 0, i64 %112
  %114 = load i32, i32* %113, align 4
  store i32 %114, i32* %5, align 4
  %115 = load i32, i32* %3, align 4
  %116 = sext i32 %115 to i64
  %117 = getelementptr inbounds [100 x i32], [100 x i32]* %9, i64 0, i64 %116
  %118 = load i32, i32* %117, align 4
  %119 = load i32, i32* %3, align 4
  %120 = add nsw i32 %119, 1
  %121 = sext i32 %120 to i64
  %122 = getelementptr inbounds [100 x i32], [100 x i32]* %9, i64 0, i64 %121
  store i32 %118, i32* %122, align 4
  %123 = load i32, i32* %5, align 4
  %124 = load i32, i32* %3, align 4
  %125 = sext i32 %124 to i64
  %126 = getelementptr inbounds [100 x i32], [100 x i32]* %9, i64 0, i64 %125
  store i32 %123, i32* %126, align 4
  %127 = getelementptr inbounds [11 x i8], [11 x i8]* %12, i64 0, i64 0
  %128 = load i32, i32* %3, align 4
  %129 = add nsw i32 %128, 1
  %130 = sext i32 %129 to i64
  %131 = getelementptr inbounds [100 x [11 x i8]], [100 x [11 x i8]]* %13, i64 0, i64 %130
  %132 = getelementptr inbounds [11 x i8], [11 x i8]* %131, i64 0, i64 0
  %133 = call i8* @strcpy(i8* %127, i8* %132) #3
  %134 = load i32, i32* %3, align 4
  %135 = add nsw i32 %134, 1
  %136 = sext i32 %135 to i64
  %137 = getelementptr inbounds [100 x [11 x i8]], [100 x [11 x i8]]* %13, i64 0, i64 %136
  %138 = getelementptr inbounds [11 x i8], [11 x i8]* %137, i64 0, i64 0
  %139 = load i32, i32* %3, align 4
  %140 = sext i32 %139 to i64
  %141 = getelementptr inbounds [100 x [11 x i8]], [100 x [11 x i8]]* %13, i64 0, i64 %140
  %142 = getelementptr inbounds [11 x i8], [11 x i8]* %141, i64 0, i64 0
  %143 = call i8* @strcpy(i8* %138, i8* %142) #3
  %144 = load i32, i32* %3, align 4
  %145 = sext i32 %144 to i64
  %146 = getelementptr inbounds [100 x [11 x i8]], [100 x [11 x i8]]* %13, i64 0, i64 %145
  %147 = getelementptr inbounds [11 x i8], [11 x i8]* %146, i64 0, i64 0
  %148 = getelementptr inbounds [11 x i8], [11 x i8]* %12, i64 0, i64 0
  %149 = call i8* @strcpy(i8* %147, i8* %148) #3
  br label %150

150:                                              ; preds = %109, %98
  br label %151

151:                                              ; preds = %150
  %152 = load i32, i32* %3, align 4
  %153 = add nsw i32 %152, 1
  store i32 %153, i32* %3, align 4
  br label %92

154:                                              ; preds = %92
  br label %155

155:                                              ; preds = %154
  %156 = load i32, i32* %7, align 4
  %157 = add nsw i32 %156, 1
  store i32 %157, i32* %7, align 4
  br label %87

158:                                              ; preds = %87
  store i32 0, i32* %3, align 4
  br label %159

159:                                              ; preds = %169, %158
  %160 = load i32, i32* %3, align 4
  %161 = load i32, i32* %4, align 4
  %162 = icmp slt i32 %160, %161
  br i1 %162, label %163, label %172

163:                                              ; preds = %159
  %164 = load i32, i32* %3, align 4
  %165 = sext i32 %164 to i64
  %166 = getelementptr inbounds [100 x [11 x i8]], [100 x [11 x i8]]* %13, i64 0, i64 %165
  %167 = getelementptr inbounds [11 x i8], [11 x i8]* %166, i64 0, i64 0
  %168 = call i32 (i8*, ...) @printf(i8* getelementptr inbounds ([4 x i8], [4 x i8]* @.str.2, i64 0, i64 0), i8* %167)
  br label %169

169:                                              ; preds = %163
  %170 = load i32, i32* %3, align 4
  %171 = add nsw i32 %170, 1
  store i32 %171, i32* %3, align 4
  br label %159

172:                                              ; preds = %159
  store i32 0, i32* %3, align 4
  br label %173

173:                                              ; preds = %183, %172
  %174 = load i32, i32* %3, align 4
  %175 = load i32, i32* %6, align 4
  %176 = icmp slt i32 %174, %175
  br i1 %176, label %177, label %186

177:                                              ; preds = %173
  %178 = load i32, i32* %3, align 4
  %179 = sext i32 %178 to i64
  %180 = getelementptr inbounds [100 x [11 x i8]], [100 x [11 x i8]]* %14, i64 0, i64 %179
  %181 = getelementptr inbounds [11 x i8], [11 x i8]* %180, i64 0, i64 0
  %182 = call i32 (i8*, ...) @printf(i8* getelementptr inbounds ([4 x i8], [4 x i8]* @.str.2, i64 0, i64 0), i8* %181)
  br label %183

183:                                              ; preds = %177
  %184 = load i32, i32* %3, align 4
  %185 = add nsw i32 %184, 1
  store i32 %185, i32* %3, align 4
  br label %173

186:                                              ; preds = %173
  ret i32 0
}

declare dso_local i32 @__isoc99_scanf(i8*, ...) #1

; Function Attrs: nounwind
declare dso_local i8* @strcpy(i8*, i8*) #2

declare dso_local i32 @printf(i8*, ...) #1


!llvm.module.flags = !{!0}
!llvm.ident = !{!1}

!0 = !{i32 1, !"wchar_size", i32 4}
!1 = !{!"clang version 10.0.0-4ubuntu1 "}
